; Function Attrs: nounwind uwtable
define hidden noalias noundef ptr @_Py_wfopen(ptr noundef %0, ptr noundef %1) local_unnamed_addr #0 {
  %3 = alloca ptr, align 8
  %4 = alloca [10 x i8], align 1
  %5 = tail call i32 (ptr, ptr, ...) @PySys_Audit(ptr noundef nonnull @.str.1, ptr noundef nonnull @.str.2, ptr noundef %0, ptr noundef %1, i32 noundef 0) #17
  %6 = icmp slt i32 %5, 0
  br i1 %6, label %30, label %7

7:                                                ; preds = %2
  call void @llvm.lifetime.start.p0(i64 10, ptr nonnull %4) #17
  %8 = call i64 @wcstombs(ptr noundef nonnull %4, ptr noundef %1, i64 noundef 10) #17
  %9 = icmp ugt i64 %8, 9
  br i1 %9, label %10, label %12

10:                                               ; preds = %7
  %11 = tail call ptr @__errno_location() #19
  store i32 22, ptr %11, align 4, !tbaa !180
  br label %make_non_inheritable.exit.thread17

12:                                               ; preds = %7
  call void @llvm.lifetime.start.p0(i64 8, ptr nonnull %3) #17
  %13 = call fastcc i32 @encode_locale_ex(ptr noundef %0, ptr noundef nonnull %3, ptr noundef null, ptr noundef null, i32 noundef 1, i32 noundef 0, i32 noundef 2)
  %.not.i.i = icmp ne i32 %13, 0
  %14 = load ptr, ptr %3, align 8
  call void @llvm.lifetime.end.p0(i64 8, ptr nonnull %3) #17
  %15 = icmp eq ptr %14, null
  %16 = select i1 %.not.i.i, i1 true, i1 %15
  br i1 %16, label %make_non_inheritable.exit.thread17, label %17

17:                                               ; preds = %12
  %18 = call noalias ptr @fopen64(ptr noundef nonnull %14, ptr noundef nonnull %4)
  call void @PyMem_RawFree(ptr noundef nonnull %14) #17
  %19 = icmp eq ptr %18, null
  br i1 %19, label %make_non_inheritable.exit.thread17, label %20

20:                                               ; preds = %17
  %21 = call i32 @fileno(ptr noundef nonnull %18) #17
  %22 = call i32 (i32, i32, ...) @fcntl64(i32 noundef %21, i32 noundef 1) #17
  %23 = icmp slt i32 %22, 0
  br i1 %23, label %make_non_inheritable.exit.thread, label %24

24:                                               ; preds = %20
  %25 = or i32 %22, 1
  %26 = icmp eq i32 %25, %22
  br i1 %26, label %make_non_inheritable.exit.thread17, label %make_non_inheritable.exit

make_non_inheritable.exit:                        ; preds = %24
  %27 = call i32 (i32, i32, ...) @fcntl64(i32 noundef %21, i32 noundef 2, i32 noundef %25) #17
  %28 = icmp slt i32 %27, 0
  br i1 %28, label %make_non_inheritable.exit.thread, label %make_non_inheritable.exit.thread17

make_non_inheritable.exit.thread:                 ; preds = %20, %make_non_inheritable.exit
  %29 = call i32 @fclose(ptr noundef nonnull %18)
  br label %make_non_inheritable.exit.thread17

make_non_inheritable.exit.thread17:               ; preds = %24, %make_non_inheritable.exit, %17, %12, %make_non_inheritable.exit.thread, %10
  %.1 = phi ptr [ null, %10 ], [ null, %make_non_inheritable.exit.thread ], [ null, %12 ], [ null, %17 ], [ %18, %make_non_inheritable.exit ], [ %18, %24 ]
  call void @llvm.lifetime.end.p0(i64 10, ptr nonnull %4) #17
  br label %30

30:                                               ; preds = %2, %make_non_inheritable.exit.thread17
  %.0 = phi ptr [ %.1, %make_non_inheritable.exit.thread17 ], [ null, %2 ]
  ret ptr %.0
}